; Function Attrs: mustprogress uwtable
define internal fastcc noundef zeroext i1 @_ZL16getUnicodeStringP7_objectRNSt7__cxx1112basic_stringIcSt11char_traitsIcESaIcEEE(ptr noundef %0, ptr noundef nonnull align 8 dereferenceable(32) %1) unnamed_addr #3 personality ptr @__gxx_personality_v0 {
  %3 = alloca %"class.std::__cxx11::basic_string", align 8
  %4 = alloca %"class.std::allocator", align 1
  %5 = getelementptr inbounds i8, ptr %0, i64 8
  %6 = load ptr, ptr %5, align 8
  %7 = getelementptr i8, ptr %6, i64 168
  %.val13 = load i64, ptr %7, align 8
  %8 = and i64 %.val13, 268435456
  %.not = icmp eq i64 %8, 0
  br i1 %.not, label %_ZL11_Py_XDECREFP7_object.exit, label %9

9:                                                ; preds = %2
  %10 = tail call ptr @PyUnicode_AsUTF8String(ptr noundef nonnull %0)
  %11 = getelementptr inbounds i8, ptr %10, i64 8
  %12 = load ptr, ptr %11, align 8
  %13 = getelementptr i8, ptr %12, i64 168
  %.val = load i64, ptr %13, align 8
  %14 = and i64 %.val, 134217728
  %.not11 = icmp eq i64 %14, 0
  br i1 %.not11, label %22, label %15

15:                                               ; preds = %9
  %16 = tail call ptr @PyBytes_AsString(ptr noundef nonnull %10)
  %.not12 = icmp eq ptr %16, null
  br i1 %.not12, label %22, label %17

17:                                               ; preds = %15
  call void @_ZNSaIcEC1Ev(ptr noundef nonnull align 1 dereferenceable(1) %4) #12
  invoke void @_ZNSt7__cxx1112basic_stringIcSt11char_traitsIcESaIcEEC1EPKcRKS3_(ptr noundef nonnull align 8 dereferenceable(32) %3, ptr noundef nonnull %16, ptr noundef nonnull align 1 dereferenceable(1) %4)
          to label %18 unwind label %20

18:                                               ; preds = %17
  %19 = call noundef nonnull align 8 dereferenceable(32) ptr @_ZNSt7__cxx1112basic_stringIcSt11char_traitsIcESaIcEEaSEOS4_(ptr noundef nonnull align 8 dereferenceable(32) %1, ptr noundef nonnull align 8 dereferenceable(32) %3) #12
  call void @_ZNSt7__cxx1112basic_stringIcSt11char_traitsIcESaIcEED1Ev(ptr noundef nonnull align 8 dereferenceable(32) %3) #12
  call void @_ZNSaIcED1Ev(ptr noundef nonnull align 1 dereferenceable(1) %4) #12
  br label %22

20:                                               ; preds = %17
  %21 = landingpad { ptr, i32 }
          cleanup
  call void @_ZNSaIcED1Ev(ptr noundef nonnull align 1 dereferenceable(1) %4) #12
  resume { ptr, i32 } %21

22:                                               ; preds = %9, %18, %15
  %.0 = phi i1 [ true, %18 ], [ false, %15 ], [ false, %9 ]
  %23 = load i64, ptr %10, align 8
  %24 = add nsw i64 %23, -1
  store i64 %24, ptr %10, align 8
  %.not.i.i = icmp eq i64 %24, 0
  br i1 %.not.i.i, label %25, label %_ZL11_Py_XDECREFP7_object.exit

25:                                               ; preds = %22
  call void @_Py_Dealloc(ptr noundef nonnull %10)
  br label %_ZL11_Py_XDECREFP7_object.exit

_ZL11_Py_XDECREFP7_object.exit:                   ; preds = %25, %22, %2
  %.1 = phi i1 [ false, %2 ], [ %.0, %22 ], [ %.0, %25 ]
  ret i1 %.1
}